; Function Attrs: nofree norecurse nosync nounwind memory(read, inaccessiblemem: none) uwtable
define ptr @zend_get_executed_filename_ex() local_unnamed_addr #8 {
  %1 = load ptr, ptr getelementptr inbounds (%struct._zend_executor_globals, ptr @executor_globals, i64 0, i32 75), align 8
  %.not = icmp eq ptr %1, null
  br i1 %.not, label %.preheader, label %.critedge17

.preheader:                                       ; preds = %0
  %.018 = load ptr, ptr getelementptr inbounds (%struct._zend_executor_globals, ptr @executor_globals, i64 0, i32 17), align 8
  %.not1419 = icmp eq ptr %.018, null
  br i1 %.not1419, label %.critedge17, label %.lr.ph

.lr.ph:                                           ; preds = %.preheader, %.critedge2
  %.020 = phi ptr [ %.0, %.critedge2 ], [ %.018, %.preheader ]
  %2 = getelementptr inbounds i8, ptr %.020, i64 24
  %3 = load ptr, ptr %2, align 8
  %.not15 = icmp eq ptr %3, null
  br i1 %.not15, label %.critedge2, label %4

4:                                                ; preds = %.lr.ph
  %5 = load i8, ptr %3, align 8
  %.not16 = icmp eq i8 %5, 1
  br i1 %.not16, label %.critedge2, label %.critedge

.critedge2:                                       ; preds = %.lr.ph, %4
  %6 = getelementptr inbounds i8, ptr %.020, i64 48
  %.0 = load ptr, ptr %6, align 8
  %.not14 = icmp eq ptr %.0, null
  br i1 %.not14, label %.critedge17, label %.lr.ph

.critedge:                                        ; preds = %4
  %7 = getelementptr inbounds i8, ptr %3, i64 152
  %8 = load ptr, ptr %7, align 8
  br label %.critedge17

.critedge17:                                      ; preds = %.critedge2, %.preheader, %0, %.critedge
  %.011 = phi ptr [ %8, %.critedge ], [ %1, %0 ], [ null, %.preheader ], [ null, %.critedge2 ]
  ret ptr %.011
}